target datalayout = "e-m:e-p270:32:32-p271:32:32-p272:64:64-i64:64-i128:128-f80:128-n8:16:32:64-S128"
target triple = "x86_64-pc-linux-gnu"

%struct.RBasic = type { i64, i64 }
%struct.RArray = type { %struct.RBasic, %union.anon.4 }
%union.anon.4 = type { %struct.anon.5 }
%struct.anon.5 = type { i64, %union.anon.6, ptr }
%union.anon.6 = type { i64 }

@ossl_ssl_ex_ptr_idx = internal global i32 0, align 4

; Function Attrs: inlinehint nounwind sspstrong willreturn memory(read) uwtable
define internal i64 @RB_FL_TEST_RAW(i64 noundef %0, i64 noundef %1) #1 {
  %3 = alloca i64, align 8
  %4 = alloca i64, align 8
  store i64 %0, ptr %3, align 8, !tbaa !14
  store i64 %1, ptr %4, align 8, !tbaa !14
  %5 = load i64, ptr %3, align 8, !tbaa !14
  %6 = inttoptr i64 %5 to ptr
  %7 = getelementptr inbounds nuw %struct.RBasic, ptr %6, i32 0, i32 0
  %8 = load i64, ptr %7, align 8, !tbaa !52
  %9 = load i64, ptr %4, align 8, !tbaa !14
  %10 = and i64 %8, %9
  ret i64 %10
}

; Function Attrs: inlinehint nounwind sspstrong willreturn memory(read) uwtable
define internal zeroext i1 @RB_FL_ANY_RAW(i64 noundef %0, i64 noundef %1) #1 {
  %3 = alloca i64, align 8
  %4 = alloca i64, align 8
  store i64 %0, ptr %3, align 8, !tbaa !14
  store i64 %1, ptr %4, align 8, !tbaa !14
  %5 = load i64, ptr %3, align 8, !tbaa !14
  %6 = load i64, ptr %4, align 8, !tbaa !14
  %7 = call i64 @RB_FL_TEST_RAW(i64 noundef %5, i64 noundef %6) #21
  %8 = icmp ne i64 %7, 0
  ret i1 %8
}

; Function Attrs: inlinehint nounwind sspstrong willreturn memory(read) uwtable
define internal ptr @rb_array_const_ptr(i64 noundef %0) #1 {
  %2 = alloca ptr, align 8
  %3 = alloca i64, align 8
  store i64 %0, ptr %3, align 8, !tbaa !14
  %4 = load i64, ptr %3, align 8, !tbaa !14
  %5 = call zeroext i1 @RB_FL_ANY_RAW(i64 noundef %4, i64 noundef 8192) #21
  br i1 %5, label %6, label %11

6:                                                ; preds = %1
  %7 = load i64, ptr %3, align 8, !tbaa !14
  %8 = inttoptr i64 %7 to ptr
  %9 = getelementptr inbounds nuw %struct.RArray, ptr %8, i32 0, i32 1
  %10 = getelementptr inbounds [1 x i64], ptr %9, i64 0, i64 0
  store ptr %10, ptr %2, align 8
  br label %17

11:                                               ; preds = %1
  %12 = load i64, ptr %3, align 8, !tbaa !14
  %13 = inttoptr i64 %12 to ptr
  %14 = getelementptr inbounds nuw %struct.RArray, ptr %13, i32 0, i32 1
  %15 = getelementptr inbounds nuw %struct.anon.5, ptr %14, i32 0, i32 2
  %16 = load ptr, ptr %15, align 8, !tbaa !53
  store ptr %16, ptr %2, align 8
  br label %17

17:                                               ; preds = %11, %6
  %18 = load ptr, ptr %2, align 8
  ret ptr %18
}

; Function Attrs: inlinehint nounwind sspstrong willreturn memory(none) uwtable
define internal zeroext i1 @RB_NIL_P(i64 noundef %0) #9 {
  %2 = alloca i64, align 8
  store i64 %0, ptr %2, align 8, !tbaa !14
  %3 = load i64, ptr %2, align 8, !tbaa !14
  %4 = icmp eq i64 %3, 4
  ret i1 %4
}

; Function Attrs: nounwind sspstrong uwtable
define internal i32 @ossl_client_cert_cb(ptr noundef %0, ptr noundef %1, ptr noundef %2) #0 {
  %4 = alloca i32, align 4
  %5 = alloca ptr, align 8
  %6 = alloca ptr, align 8
  %7 = alloca ptr, align 8
  %8 = alloca i64, align 8
  %9 = alloca i64, align 8
  %10 = alloca i32, align 4
  store ptr %0, ptr %5, align 8, !tbaa !10
  store ptr %1, ptr %6, align 8, !tbaa !76
  store ptr %2, ptr %7, align 8, !tbaa !78
  call void @llvm.lifetime.start.p0(i64 8, ptr %8) #20
  call void @llvm.lifetime.start.p0(i64 8, ptr %9) #20
  %11 = load ptr, ptr %5, align 8, !tbaa !10
  %12 = load i32, ptr @ossl_ssl_ex_ptr_idx, align 4, !tbaa !12
  %13 = call ptr @SSL_get_ex_data(ptr noundef %11, i32 noundef %12)
  %14 = ptrtoint ptr %13 to i64
  store i64 %14, ptr %8, align 8, !tbaa !14
  %15 = load i64, ptr %8, align 8, !tbaa !14
  %16 = call i64 @rb_protect(ptr noundef @ossl_call_client_cert_cb, i64 noundef %15, ptr noundef null)
  store i64 %16, ptr %9, align 8, !tbaa !14
  %17 = load i64, ptr %9, align 8, !tbaa !14
  %18 = call zeroext i1 @RB_NIL_P(i64 noundef %17) #23
  br i1 %18, label %19, label %20

19:                                               ; preds = %3
  store i32 0, ptr %4, align 4
  store i32 1, ptr %10, align 4
  br label %33

20:                                               ; preds = %3
  %21 = load i64, ptr %9, align 8, !tbaa !14
  %22 = call ptr @rb_array_const_ptr(i64 noundef %21) #21
  %23 = getelementptr inbounds i64, ptr %22, i64 0
  %24 = load i64, ptr %23, align 8, !tbaa !14
  %25 = call ptr @DupX509CertPtr(i64 noundef %24)
  %26 = load ptr, ptr %6, align 8, !tbaa !76
  store ptr %25, ptr %26, align 8, !tbaa !36
  %27 = load i64, ptr %9, align 8, !tbaa !14
  %28 = call ptr @rb_array_const_ptr(i64 noundef %27) #21
  %29 = getelementptr inbounds i64, ptr %28, i64 1
  %30 = load i64, ptr %29, align 8, !tbaa !14
  %31 = call ptr @DupPKeyPtr(i64 noundef %30)
  %32 = load ptr, ptr %7, align 8, !tbaa !78
  store ptr %31, ptr %32, align 8, !tbaa !30
  store i32 1, ptr %4, align 4
  store i32 1, ptr %10, align 4
  br label %33

33:                                               ; preds = %20, %19
  call void @llvm.lifetime.end.p0(i64 8, ptr %9) #20
  call void @llvm.lifetime.end.p0(i64 8, ptr %8) #20
  %34 = load i32, ptr %4, align 4
  ret i32 %34
}