; Function Attrs: nounwind sspstrong uwtable
define internal range(i32 0, 2) i32 @ossl_client_cert_cb(ptr noundef %0, ptr noundef writeonly captures(none) %1, ptr noundef writeonly captures(none) %2) #0 {
  %4 = load i32, ptr @ossl_ssl_ex_ptr_idx, align 4, !tbaa !6
  %5 = tail call ptr @SSL_get_ex_data(ptr noundef %0, i32 noundef %4) #9
  %6 = ptrtoint ptr %5 to i64
  %7 = tail call i64 @rb_protect(ptr noundef nonnull @ossl_call_client_cert_cb, i64 noundef %6, ptr noundef null) #9
  %8 = icmp eq i64 %7, 4
  br i1 %8, label %30, label %9

9:                                                ; preds = %3
  %10 = inttoptr i64 %7 to ptr
  %11 = load i64, ptr %10, align 8, !tbaa !18
  %12 = and i64 %11, 8192
  %.not.i = icmp eq i64 %12, 0
  br i1 %.not.i, label %15, label %13

13:                                               ; preds = %9
  %14 = getelementptr inbounds nuw i8, ptr %10, i64 16
  br label %rb_array_const_ptr.exit

15:                                               ; preds = %9
  %16 = getelementptr inbounds nuw i8, ptr %10, i64 32
  %17 = load ptr, ptr %16, align 8, !tbaa !30
  br label %rb_array_const_ptr.exit

rb_array_const_ptr.exit:                          ; preds = %13, %15
  %.0.i = phi ptr [ %14, %13 ], [ %17, %15 ]
  %18 = load i64, ptr %.0.i, align 8, !tbaa !10
  %19 = tail call ptr @DupX509CertPtr(i64 noundef %18) #9
  store ptr %19, ptr %1, align 8, !tbaa !72
  %20 = load i64, ptr %10, align 8, !tbaa !18
  %21 = and i64 %20, 8192
  %.not.i7 = icmp eq i64 %21, 0
  br i1 %.not.i7, label %24, label %22

22:                                               ; preds = %rb_array_const_ptr.exit
  %23 = getelementptr inbounds nuw i8, ptr %10, i64 16
  br label %rb_array_const_ptr.exit9

24:                                               ; preds = %rb_array_const_ptr.exit
  %25 = getelementptr inbounds nuw i8, ptr %10, i64 32
  %26 = load ptr, ptr %25, align 8, !tbaa !30
  br label %rb_array_const_ptr.exit9

rb_array_const_ptr.exit9:                         ; preds = %22, %24
  %.0.i8 = phi ptr [ %23, %22 ], [ %26, %24 ]
  %27 = getelementptr inbounds nuw i8, ptr %.0.i8, i64 8
  %28 = load i64, ptr %27, align 8, !tbaa !10
  %29 = tail call ptr @DupPKeyPtr(i64 noundef %28) #9
  store ptr %29, ptr %2, align 8, !tbaa !44
  br label %30

30:                                               ; preds = %3, %rb_array_const_ptr.exit9
  %.0 = phi i32 [ 1, %rb_array_const_ptr.exit9 ], [ 0, %3 ]
  ret i32 %.0
}